; Function Attrs: inlinehint mustprogress nofree norecurse nosync nounwind willreturn memory(read, inaccessiblemem: none) uwtable
define internal fastcc i32 @show_bits_long(ptr noundef readonly captures(none) %0) unnamed_addr #11 {
  %.sroa.0.0.copyload = load ptr, ptr %0, align 8, !tbaa !133
  %.sroa.46.0..sroa_idx = getelementptr inbounds nuw i8, ptr %0, i64 16
  %.sroa.46.0.copyload = load i32, ptr %.sroa.46.0..sroa_idx, align 8, !tbaa !93
  %.sroa.77.0..sroa_idx = getelementptr inbounds nuw i8, ptr %0, i64 24
  %.sroa.77.0.copyload = load i32, ptr %.sroa.77.0..sroa_idx, align 8, !tbaa !93
  %2 = lshr i32 %.sroa.46.0.copyload, 3
  %3 = zext nneg i32 %2 to i64
  %4 = getelementptr inbounds nuw i8, ptr %.sroa.0.0.copyload, i64 %3
  %5 = load i32, ptr %4, align 1, !tbaa !67
  %6 = tail call i32 @llvm.bswap.i32(i32 %5)
  %7 = and i32 %.sroa.46.0.copyload, 7
  %8 = shl i32 %6, %7
  %9 = and i32 %8, -65536
  %10 = add i32 %.sroa.46.0.copyload, 16
  %11 = tail call i32 @llvm.umin.i32(i32 %.sroa.77.0.copyload, i32 %10)
  %12 = lshr i32 %11, 3
  %13 = zext nneg i32 %12 to i64
  %14 = getelementptr inbounds nuw i8, ptr %.sroa.0.0.copyload, i64 %13
  %15 = load i32, ptr %14, align 1, !tbaa !67
  %16 = tail call i32 @llvm.bswap.i32(i32 %15)
  %17 = and i32 %11, 7
  %18 = shl i32 %16, %17
  %19 = lshr i32 %18, 16
  %20 = or disjoint i32 %19, %9
  ret i32 %20
}